target datalayout = "e-m:e-p270:32:32-p271:32:32-p272:64:64-i64:64-i128:128-f80:128-n8:16:32:64-S128"
target triple = "x86_64-unknown-linux-gnu"

%"class.boost::detail::shared_count" = type { ptr }
%"struct.std::pair" = type { %"class.QuantLib::Date", %"class.QuantLib::Date" }
%"class.QuantLib::Date" = type { i64 }
%"class.QuantLib::DayCounter" = type { %"class.boost::shared_ptr.6" }
%"class.boost::shared_ptr.6" = type { ptr, %"class.boost::detail::shared_count" }

; Function Attrs: mustprogress uwtable
define noundef double @_ZNK8QuantLib30MultiplicativePriceSeasonality14correctYoYRateERKNS_4DateEdRKNS_22InflationTermStructureE(ptr noundef nonnull align 8 dereferenceable(48) %this, ptr noundef nonnull align 8 dereferenceable(8) %d, double noundef %r, ptr noundef nonnull align 8 dereferenceable(113) %iTS) unnamed_addr #6 align 2 personality ptr @__gxx_personality_v0 {
entry:
  %this.addr = alloca ptr, align 8
  %d.addr = alloca ptr, align 8
  %r.addr = alloca double, align 8
  %iTS.addr = alloca ptr, align 8
  %lim = alloca %"struct.std::pair", align 8
  %ref.tmp = alloca %"class.QuantLib::Date", align 8
  %curveBaseDate = alloca %"class.QuantLib::Date", align 8
  %ref.tmp6 = alloca %"class.QuantLib::DayCounter", align 8
  %exn.slot = alloca ptr, align 8
  %ehselector.slot = alloca i32, align 4
  store ptr %this, ptr %this.addr, align 8, !tbaa !3
  store ptr %d, ptr %d.addr, align 8, !tbaa !3
  store double %r, ptr %r.addr, align 8, !tbaa !15
  store ptr %iTS, ptr %iTS.addr, align 8, !tbaa !3
  %this1 = load ptr, ptr %this.addr, align 8
  call void @llvm.lifetime.start.p0(i64 16, ptr %lim) #17
  call void @llvm.lifetime.start.p0(i64 8, ptr %ref.tmp) #17
  %0 = load ptr, ptr %iTS.addr, align 8, !tbaa !3
  %vtable = load ptr, ptr %0, align 8, !tbaa !7
  %vfn = getelementptr inbounds ptr, ptr %vtable, i64 12
  %1 = load ptr, ptr %vfn, align 8
  %call = call i64 %1(ptr noundef nonnull align 8 dereferenceable(113) %0)
  %coerce.dive = getelementptr inbounds nuw %"class.QuantLib::Date", ptr %ref.tmp, i32 0, i32 0
  store i64 %call, ptr %coerce.dive, align 8
  %2 = load ptr, ptr %iTS.addr, align 8, !tbaa !3
  %vtable2 = load ptr, ptr %2, align 8, !tbaa !7
  %vfn3 = getelementptr inbounds ptr, ptr %vtable2, i64 10
  %3 = load ptr, ptr %vfn3, align 8
  %call4 = call noundef i32 %3(ptr noundef nonnull align 8 dereferenceable(113) %2)
  %call5 = call { i64, i64 } @_ZN8QuantLib15inflationPeriodERKNS_4DateENS_9FrequencyE(ptr noundef nonnull align 8 dereferenceable(8) %ref.tmp, i32 noundef %call4)
  %4 = getelementptr inbounds nuw { i64, i64 }, ptr %lim, i32 0, i32 0
  %5 = extractvalue { i64, i64 } %call5, 0
  store i64 %5, ptr %4, align 8
  %6 = getelementptr inbounds nuw { i64, i64 }, ptr %lim, i32 0, i32 1
  %7 = extractvalue { i64, i64 } %call5, 1
  store i64 %7, ptr %6, align 8
  call void @llvm.lifetime.end.p0(i64 8, ptr %ref.tmp) #17
  call void @llvm.lifetime.start.p0(i64 8, ptr %curveBaseDate) #17
  %second = getelementptr inbounds nuw %"struct.std::pair", ptr %lim, i32 0, i32 1
  call void @llvm.memcpy.p0.p0.i64(ptr align 8 %curveBaseDate, ptr align 8 %second, i64 8, i1 false), !tbaa.struct !14
  %8 = load double, ptr %r.addr, align 8, !tbaa !15
  %9 = load ptr, ptr %d.addr, align 8, !tbaa !3
  call void @llvm.lifetime.start.p0(i64 16, ptr %ref.tmp6) #17
  %10 = load ptr, ptr %iTS.addr, align 8, !tbaa !3
  %vtable7 = load ptr, ptr %10, align 8, !tbaa !7
  %vfn8 = getelementptr inbounds ptr, ptr %vtable7, i64 2
  %11 = load ptr, ptr %vfn8, align 8
  call void %11(ptr dead_on_unwind writable sret(%"class.QuantLib::DayCounter") align 8 %ref.tmp6, ptr noundef nonnull align 8 dereferenceable(64) %10)
  %vtable9 = load ptr, ptr %this1, align 8, !tbaa !7
  %vfn10 = getelementptr inbounds ptr, ptr %vtable9, i64 11
  %12 = load ptr, ptr %vfn10, align 8
  %call11 = invoke noundef double %12(ptr noundef nonnull align 8 dereferenceable(48) %this1, double noundef %8, ptr noundef nonnull align 8 dereferenceable(8) %9, ptr noundef nonnull align 8 dereferenceable(16) %ref.tmp6, ptr noundef nonnull align 8 dereferenceable(8) %curveBaseDate, i1 noundef zeroext false)
          to label %invoke.cont unwind label %lpad

invoke.cont:                                      ; preds = %entry
  call void @_ZN8QuantLib10DayCounterD2Ev(ptr noundef nonnull align 8 dereferenceable(16) %ref.tmp6) #17
  call void @llvm.lifetime.end.p0(i64 16, ptr %ref.tmp6) #17
  call void @llvm.lifetime.end.p0(i64 8, ptr %curveBaseDate) #17
  call void @llvm.lifetime.end.p0(i64 16, ptr %lim) #17
  ret double %call11

lpad:                                             ; preds = %entry
  %13 = landingpad { ptr, i32 }
          cleanup
  %14 = extractvalue { ptr, i32 } %13, 0
  store ptr %14, ptr %exn.slot, align 8
  %15 = extractvalue { ptr, i32 } %13, 1
  store i32 %15, ptr %ehselector.slot, align 4
  call void @_ZN8QuantLib10DayCounterD2Ev(ptr noundef nonnull align 8 dereferenceable(16) %ref.tmp6) #17
  call void @llvm.lifetime.end.p0(i64 16, ptr %ref.tmp6) #17
  call void @llvm.lifetime.end.p0(i64 8, ptr %curveBaseDate) #17
  call void @llvm.lifetime.end.p0(i64 16, ptr %lim) #17
  br label %eh.resume

eh.resume:                                        ; preds = %lpad
  %exn = load ptr, ptr %exn.slot, align 8
  %sel = load i32, ptr %ehselector.slot, align 4
  %lpad.val = insertvalue { ptr, i32 } poison, ptr %exn, 0
  %lpad.val12 = insertvalue { ptr, i32 } %lpad.val, i32 %sel, 1
  resume { ptr, i32 } %lpad.val12
}